target datalayout = "e-m:e-p270:32:32-p271:32:32-p272:64:64-i64:64-i128:128-f80:128-n8:16:32:64-S128"
target triple = "x86_64-pc-linux-gnu"

; Function Attrs: nounwind uwtable
define internal double @omega(double noundef %0) #0 {
  %2 = alloca double, align 8
  store double %0, ptr %2, align 8, !tbaa !17
  %3 = load double, ptr %2, align 8, !tbaa !17
  %4 = fdiv double %3, 2.000000e+00
  %5 = call double @cos(double noundef %4) #7, !tbaa !4
  ret double %5
}

; Function Attrs: nounwind uwtable
define internal double @F(double noundef %0) #0 {
  %2 = alloca double, align 8
  store double %0, ptr %2, align 8, !tbaa !17
  %3 = load double, ptr %2, align 8, !tbaa !17
  %4 = fdiv double %3, 0x400921FB54442D18
  %5 = call double @sin(double noundef %4) #7, !tbaa !4
  %6 = fmul double 1.800000e-02, %5
  ret double %6
}

; Function Attrs: nounwind uwtable
define internal i32 @pdot(double noundef %0, ptr noundef %1, ptr noundef %2, ptr noundef %3) #0 {
  %5 = alloca double, align 8
  %6 = alloca ptr, align 8
  %7 = alloca ptr, align 8
  %8 = alloca ptr, align 8
  %9 = alloca ptr, align 8
  %10 = alloca ptr, align 8
  %11 = alloca double, align 8
  %12 = alloca double, align 8
  store double %0, ptr %5, align 8, !tbaa !17
  store ptr %1, ptr %6, align 8, !tbaa !13
  store ptr %2, ptr %7, align 8, !tbaa !13
  store ptr %3, ptr %8, align 8, !tbaa !19
  call void @llvm.lifetime.start.p0(i64 8, ptr %9) #7
  %13 = load ptr, ptr %6, align 8, !tbaa !13
  %14 = call ptr @N_VGetArrayPointer(ptr noundef %13)
  store ptr %14, ptr %9, align 8, !tbaa !15
  call void @llvm.lifetime.start.p0(i64 8, ptr %10) #7
  %15 = load ptr, ptr %7, align 8, !tbaa !13
  %16 = call ptr @N_VGetArrayPointer(ptr noundef %15)
  store ptr %16, ptr %10, align 8, !tbaa !15
  call void @llvm.lifetime.start.p0(i64 8, ptr %11) #7
  %17 = load ptr, ptr %9, align 8, !tbaa !15
  %18 = getelementptr inbounds double, ptr %17, i64 0
  %19 = load double, ptr %18, align 8, !tbaa !17
  store double %19, ptr %11, align 8, !tbaa !17
  call void @llvm.lifetime.start.p0(i64 8, ptr %12) #7
  %20 = load ptr, ptr %9, align 8, !tbaa !15
  %21 = getelementptr inbounds double, ptr %20, i64 1
  %22 = load double, ptr %21, align 8, !tbaa !17
  store double %22, ptr %12, align 8, !tbaa !17
  %23 = load double, ptr %5, align 8, !tbaa !17
  %24 = call double @F(double noundef %23)
  %25 = load double, ptr %11, align 8, !tbaa !17
  %26 = load double, ptr %5, align 8, !tbaa !17
  %27 = call double @omega(double noundef %26)
  %28 = load double, ptr %5, align 8, !tbaa !17
  %29 = call double @omega(double noundef %28)
  %30 = fmul double %27, %29
  %31 = load double, ptr %12, align 8, !tbaa !17
  %32 = fmul double %30, %31
  %33 = call double @llvm.fmuladd.f64(double %24, double %25, double %32)
  %34 = fneg double %33
  %35 = load ptr, ptr %10, align 8, !tbaa !15
  %36 = getelementptr inbounds double, ptr %35, i64 0
  store double %34, ptr %36, align 8, !tbaa !17
  call void @llvm.lifetime.end.p0(i64 8, ptr %12) #7
  call void @llvm.lifetime.end.p0(i64 8, ptr %11) #7
  call void @llvm.lifetime.end.p0(i64 8, ptr %10) #7
  call void @llvm.lifetime.end.p0(i64 8, ptr %9) #7
  ret i32 0
}