; Function Attrs: nounwind uwtable
define internal noundef i32 @pdot(double noundef %0, ptr noundef %1, ptr noundef %2, ptr readnone captures(none) %3) #0 {
  %5 = tail call ptr @N_VGetArrayPointer(ptr noundef %1) #10
  %6 = tail call ptr @N_VGetArrayPointer(ptr noundef %2) #10
  %7 = load double, ptr %5, align 8, !tbaa !13
  %8 = getelementptr inbounds nuw i8, ptr %5, i64 8
  %9 = load double, ptr %8, align 8, !tbaa !13
  %10 = fdiv double %0, 0x400921FB54442D18
  %11 = tail call double @sin(double noundef %10) #10, !tbaa !16
  %12 = fmul double %11, 1.800000e-02
  %13 = fmul double %0, 5.000000e-01
  %14 = tail call double @cos(double noundef %13) #10, !tbaa !16
  %15 = tail call double @cos(double noundef %13) #10, !tbaa !16
  %16 = fmul double %14, %15
  %17 = fmul double %9, %16
  %18 = tail call double @llvm.fmuladd.f64(double %12, double %7, double %17)
  %19 = fneg double %18
  store double %19, ptr %6, align 8, !tbaa !13
  ret i32 0
}